; Function Attrs: mustprogress nofree norecurse nosync nounwind willreturn memory(argmem: read) uwtable
define hidden noundef nonnull ptr @_ZNK11ConstMethod30checked_exceptions_length_addrEv(ptr noundef nonnull readonly align 8 dereferenceable(52) %0) local_unnamed_addr #1 align 2 {
  %2 = getelementptr inbounds i8, ptr %0, i64 28
  %3 = load i32, ptr %2, align 4
  %4 = and i32 %3, 32
  %.not = icmp eq i32 %4, 0
  %5 = and i32 %3, 16
  %.not6 = icmp eq i32 %5, 0
  %6 = lshr i32 %3, 7
  %.lobit.i2 = and i32 %6, 1
  %7 = lshr i32 %3, 8
  %8 = and i32 %7, 1
  %.1.i3 = add nuw nsw i32 %.lobit.i2, %8
  %9 = lshr i32 %3, 9
  %10 = and i32 %9, 1
  %.2.i4 = add nuw nsw i32 %.1.i3, %10
  %11 = lshr i32 %3, 10
  %12 = and i32 %11, 1
  %.3.i5 = add nuw nsw i32 %.2.i4, %12
  %13 = getelementptr inbounds i8, ptr %0, i64 24
  %14 = load i32, ptr %13, align 8
  %15 = sext i32 %14 to i64
  %16 = getelementptr inbounds i64, ptr %0, i64 %15
  %17 = zext nneg i32 %.3.i5 to i64
  %18 = sub nsw i64 0, %17
  %19 = getelementptr inbounds ptr, ptr %16, i64 %18
  br i1 %.not, label %26, label %20

20:                                               ; preds = %1
  %..i.i = select i1 %.not6, i64 -2, i64 -4
  %21 = getelementptr inbounds i8, ptr %19, i64 %..i.i
  %22 = load i16, ptr %21, align 2
  %23 = zext i16 %22 to i64
  %.idx.i = mul nsw i64 %23, -4
  %24 = getelementptr inbounds i8, ptr %21, i64 %.idx.i
  %25 = getelementptr inbounds i8, ptr %24, i64 -2
  br label %31

26:                                               ; preds = %1
  br i1 %.not6, label %29, label %27

27:                                               ; preds = %26
  %28 = getelementptr inbounds i8, ptr %19, i64 -4
  br label %31

29:                                               ; preds = %26
  %30 = getelementptr inbounds i8, ptr %19, i64 -2
  br label %31

31:                                               ; preds = %27, %29, %20
  %.0 = phi ptr [ %25, %20 ], [ %28, %27 ], [ %30, %29 ]
  ret ptr %.0
}